; Function Attrs: mustprogress nofree nounwind willreturn memory(read, inaccessiblemem: none) uwtable
define dso_local i32 @zend_binary_zval_strcmp(ptr noundef readonly captures(none) %0, ptr noundef readonly captures(none) %1) local_unnamed_addr #19 {
  %3 = load ptr, ptr %0, align 8, !tbaa !4
  %4 = getelementptr inbounds nuw i8, ptr %3, i64 16
  %5 = load i64, ptr %4, align 8, !tbaa !10
  %6 = load ptr, ptr %1, align 8, !tbaa !4
  %7 = getelementptr inbounds nuw i8, ptr %6, i64 16
  %8 = load i64, ptr %7, align 8, !tbaa !10
  %9 = icmp eq ptr %3, %6
  br i1 %9, label %zend_binary_strcmp.exit, label %10

10:                                               ; preds = %2
  %11 = getelementptr inbounds nuw i8, ptr %6, i64 24
  %12 = getelementptr inbounds nuw i8, ptr %3, i64 24
  %13 = tail call i64 @llvm.umin.i64(i64 %5, i64 %8)
  %14 = tail call i32 @memcmp(ptr noundef nonnull readonly %12, ptr noundef nonnull readonly %11, i64 noundef %13) #29
  %.not.i = icmp eq i32 %14, 0
  br i1 %.not.i, label %15, label %zend_binary_strcmp.exit

15:                                               ; preds = %10
  %16 = tail call i32 @llvm.ucmp.i32.i64(i64 %5, i64 %8)
  br label %zend_binary_strcmp.exit

zend_binary_strcmp.exit:                          ; preds = %2, %10, %15
  %.0.i = phi i32 [ %16, %15 ], [ 0, %2 ], [ %14, %10 ]
  ret i32 %.0.i
}